target datalayout = "e-m:e-p270:32:32-p271:32:32-p272:64:64-i64:64-i128:128-f80:128-n8:16:32:64-S128"
target triple = "x86_64-pc-linux-gnu"

%"struct.Luau::CodeGen::BuiltinImplResult" = type { i32, i32 }
%"struct.Luau::CodeGen::IrOp" = type { i32 }

; Function Attrs: mustprogress uwtable
define internal i64 @_ZN4Luau7CodeGenL22translateBuiltinAssertERNS0_9IrBuilderEiiiNS0_4IrOpEii(ptr noundef nonnull align 8 dereferenceable(752) %0, i32 noundef %1, i32 noundef %2, i32 noundef %3, i32 %4, i32 noundef %5, i32 noundef %6) #2 {
  %8 = alloca %"struct.Luau::CodeGen::BuiltinImplResult", align 4
  %9 = alloca %"struct.Luau::CodeGen::IrOp", align 4
  %10 = alloca ptr, align 8
  %11 = alloca i32, align 4
  %12 = alloca i32, align 4
  %13 = alloca i32, align 4
  %14 = alloca i32, align 4
  %15 = alloca i32, align 4
  %16 = alloca %"struct.Luau::CodeGen::IrOp", align 4
  %17 = alloca %"struct.Luau::CodeGen::IrOp", align 4
  %18 = alloca %"struct.Luau::CodeGen::IrOp", align 4
  %19 = alloca %"struct.Luau::CodeGen::IrOp", align 4
  %20 = alloca %"struct.Luau::CodeGen::IrOp", align 4
  %21 = alloca %"struct.Luau::CodeGen::IrOp", align 4
  %22 = alloca %"struct.Luau::CodeGen::IrOp", align 4
  %23 = alloca %"struct.Luau::CodeGen::IrOp", align 4
  %24 = getelementptr inbounds nuw %"struct.Luau::CodeGen::IrOp", ptr %9, i32 0, i32 0
  store i32 %4, ptr %24, align 4
  store ptr %0, ptr %10, align 8, !tbaa !20
  store i32 %1, ptr %11, align 4, !tbaa !22
  store i32 %2, ptr %12, align 4, !tbaa !22
  store i32 %3, ptr %13, align 4, !tbaa !22
  store i32 %5, ptr %14, align 4, !tbaa !22
  store i32 %6, ptr %15, align 4, !tbaa !22
  %25 = load i32, ptr %11, align 4, !tbaa !22
  %26 = icmp slt i32 %25, 1
  br i1 %26, label %30, label %27

27:                                               ; preds = %7
  %28 = load i32, ptr %14, align 4, !tbaa !22
  %29 = icmp ne i32 %28, 0
  br i1 %29, label %30, label %33

30:                                               ; preds = %27, %7
  %31 = getelementptr inbounds nuw %"struct.Luau::CodeGen::BuiltinImplResult", ptr %8, i32 0, i32 0
  store i32 0, ptr %31, align 4, !tbaa !24
  %32 = getelementptr inbounds nuw %"struct.Luau::CodeGen::BuiltinImplResult", ptr %8, i32 0, i32 1
  store i32 -1, ptr %32, align 4, !tbaa !27
  br label %69

33:                                               ; preds = %27
  call void @llvm.lifetime.start.p0(i64 4, ptr %16) #11
  %34 = load ptr, ptr %10, align 8, !tbaa !20
  %35 = load ptr, ptr %10, align 8, !tbaa !20
  %36 = load i32, ptr %13, align 4, !tbaa !22
  %37 = trunc i32 %36 to i8
  %38 = call i32 @_ZN4Luau7CodeGen9IrBuilder5vmRegEh(ptr noundef nonnull align 8 dereferenceable(752) %35, i8 noundef zeroext %37)
  %39 = getelementptr inbounds nuw %"struct.Luau::CodeGen::IrOp", ptr %17, i32 0, i32 0
  store i32 %38, ptr %39, align 4
  %40 = getelementptr inbounds nuw %"struct.Luau::CodeGen::IrOp", ptr %17, i32 0, i32 0
  %41 = load i32, ptr %40, align 4
  %42 = call i32 @_ZN4Luau7CodeGen9IrBuilder4instENS0_5IrCmdENS0_4IrOpE(ptr noundef nonnull align 8 dereferenceable(752) %34, i8 noundef zeroext 1, i32 %41)
  %43 = getelementptr inbounds nuw %"struct.Luau::CodeGen::IrOp", ptr %16, i32 0, i32 0
  store i32 %42, ptr %43, align 4
  call void @llvm.lifetime.start.p0(i64 4, ptr %18) #11
  %44 = load ptr, ptr %10, align 8, !tbaa !20
  %45 = load ptr, ptr %10, align 8, !tbaa !20
  %46 = load i32, ptr %13, align 4, !tbaa !22
  %47 = trunc i32 %46 to i8
  %48 = call i32 @_ZN4Luau7CodeGen9IrBuilder5vmRegEh(ptr noundef nonnull align 8 dereferenceable(752) %45, i8 noundef zeroext %47)
  %49 = getelementptr inbounds nuw %"struct.Luau::CodeGen::IrOp", ptr %19, i32 0, i32 0
  store i32 %48, ptr %49, align 4
  %50 = getelementptr inbounds nuw %"struct.Luau::CodeGen::IrOp", ptr %19, i32 0, i32 0
  %51 = load i32, ptr %50, align 4
  %52 = call i32 @_ZN4Luau7CodeGen9IrBuilder4instENS0_5IrCmdENS0_4IrOpE(ptr noundef nonnull align 8 dereferenceable(752) %44, i8 noundef zeroext 4, i32 %51)
  %53 = getelementptr inbounds nuw %"struct.Luau::CodeGen::IrOp", ptr %18, i32 0, i32 0
  store i32 %52, ptr %53, align 4
  %54 = load ptr, ptr %10, align 8, !tbaa !20
  call void @llvm.memcpy.p0.p0.i64(ptr align 4 %20, ptr align 4 %16, i64 4, i1 false), !tbaa.struct !28
  call void @llvm.memcpy.p0.p0.i64(ptr align 4 %21, ptr align 4 %18, i64 4, i1 false), !tbaa.struct !28
  %55 = load ptr, ptr %10, align 8, !tbaa !20
  %56 = load i32, ptr %15, align 4, !tbaa !22
  %57 = call i32 @_ZN4Luau7CodeGen9IrBuilder6vmExitEj(ptr noundef nonnull align 8 dereferenceable(752) %55, i32 noundef %56)
  %58 = getelementptr inbounds nuw %"struct.Luau::CodeGen::IrOp", ptr %22, i32 0, i32 0
  store i32 %57, ptr %58, align 4
  %59 = getelementptr inbounds nuw %"struct.Luau::CodeGen::IrOp", ptr %20, i32 0, i32 0
  %60 = load i32, ptr %59, align 4
  %61 = getelementptr inbounds nuw %"struct.Luau::CodeGen::IrOp", ptr %21, i32 0, i32 0
  %62 = load i32, ptr %61, align 4
  %63 = getelementptr inbounds nuw %"struct.Luau::CodeGen::IrOp", ptr %22, i32 0, i32 0
  %64 = load i32, ptr %63, align 4
  %65 = call i32 @_ZN4Luau7CodeGen9IrBuilder4instENS0_5IrCmdENS0_4IrOpES3_S3_(ptr noundef nonnull align 8 dereferenceable(752) %54, i8 noundef zeroext 83, i32 %60, i32 %62, i32 %64)
  %66 = getelementptr inbounds nuw %"struct.Luau::CodeGen::IrOp", ptr %23, i32 0, i32 0
  store i32 %65, ptr %66, align 4
  %67 = getelementptr inbounds nuw %"struct.Luau::CodeGen::BuiltinImplResult", ptr %8, i32 0, i32 0
  store i32 1, ptr %67, align 4, !tbaa !24
  %68 = getelementptr inbounds nuw %"struct.Luau::CodeGen::BuiltinImplResult", ptr %8, i32 0, i32 1
  store i32 0, ptr %68, align 4, !tbaa !27
  call void @llvm.lifetime.end.p0(i64 4, ptr %18) #11
  call void @llvm.lifetime.end.p0(i64 4, ptr %16) #11
  br label %69

69:                                               ; preds = %33, %30
  %70 = load i64, ptr %8, align 4
  ret i64 %70
}