; Function Attrs: mustprogress uwtable
define internal fastcc range(i64 -4294967296, 2) i64 @_ZN4Luau7CodeGenL22translateBuiltinAssertERNS0_9IrBuilderEiiiNS0_4IrOpEii(ptr noundef nonnull align 8 dereferenceable(752) %0, i32 noundef range(i32 0, -1) %1, i32 noundef %2, i32 noundef %3, i32 noundef %4) unnamed_addr #0 {
  %6 = icmp slt i32 %1, 1
  %7 = icmp ne i32 %3, 0
  %or.cond = or i1 %6, %7
  br i1 %or.cond, label %16, label %8

8:                                                ; preds = %5
  %9 = trunc i32 %2 to i8
  %10 = tail call i32 @_ZN4Luau7CodeGen9IrBuilder5vmRegEh(ptr noundef nonnull align 8 dereferenceable(752) %0, i8 noundef zeroext %9)
  %11 = tail call i32 @_ZN4Luau7CodeGen9IrBuilder4instENS0_5IrCmdENS0_4IrOpE(ptr noundef nonnull align 8 dereferenceable(752) %0, i8 noundef zeroext 1, i32 %10)
  %12 = tail call i32 @_ZN4Luau7CodeGen9IrBuilder5vmRegEh(ptr noundef nonnull align 8 dereferenceable(752) %0, i8 noundef zeroext %9)
  %13 = tail call i32 @_ZN4Luau7CodeGen9IrBuilder4instENS0_5IrCmdENS0_4IrOpE(ptr noundef nonnull align 8 dereferenceable(752) %0, i8 noundef zeroext 4, i32 %12)
  %14 = tail call i32 @_ZN4Luau7CodeGen9IrBuilder6vmExitEj(ptr noundef nonnull align 8 dereferenceable(752) %0, i32 noundef %4)
  %15 = tail call i32 @_ZN4Luau7CodeGen9IrBuilder4instENS0_5IrCmdENS0_4IrOpES3_S3_(ptr noundef nonnull align 8 dereferenceable(752) %0, i8 noundef zeroext 83, i32 %11, i32 %13, i32 %14)
  br label %16

16:                                               ; preds = %5, %8
  %.sroa.019.0.insert.insert = phi i64 [ 1, %8 ], [ -4294967296, %5 ]
  ret i64 %.sroa.019.0.insert.insert
}